target datalayout = "e-m:e-p270:32:32-p271:32:32-p272:64:64-i64:64-i128:128-f80:128-n8:16:32:64-S128"
target triple = "x86_64-pc-linux-gnu"

%struct._image_pos = type { float, float, float, float }
%struct._image_box = type { i32, i32, i32, i32, i32, i32, i32, i32, i32, i32, %struct._image_pos, %struct._image_pos, %struct._image_pos, ptr }
%struct.dt_images_box = type { i32, i32, i32, [20 x %struct._image_box], float, float, float, float, %struct.dt_screen_pos }
%struct.dt_screen_pos = type { %struct._image_pos, %struct._image_pos, i32 }

; Function Attrs: nounwind uwtable
define void @dt_printing_setup_page(ptr noundef %0, float noundef %1, float noundef %2, i32 noundef %3) #0 {
  %5 = alloca ptr, align 8
  %6 = alloca float, align 4
  %7 = alloca float, align 4
  %8 = alloca i32, align 4
  %9 = alloca i32, align 4
  %10 = alloca ptr, align 8
  store ptr %0, ptr %5, align 8, !tbaa !33
  store float %1, ptr %6, align 4, !tbaa !45
  store float %2, ptr %7, align 4, !tbaa !45
  store i32 %3, ptr %8, align 4, !tbaa !35
  %11 = load float, ptr %6, align 4, !tbaa !45
  %12 = load ptr, ptr %5, align 8, !tbaa !33
  %13 = getelementptr inbounds nuw %struct.dt_images_box, ptr %12, i32 0, i32 6
  store float %11, ptr %13, align 8, !tbaa !43
  %14 = load float, ptr %7, align 4, !tbaa !45
  %15 = load ptr, ptr %5, align 8, !tbaa !33
  %16 = getelementptr inbounds nuw %struct.dt_images_box, ptr %15, i32 0, i32 7
  store float %14, ptr %16, align 4, !tbaa !42
  %17 = load float, ptr %6, align 4, !tbaa !45
  %18 = fpext reassoc nsz arcp contract afn float %17 to double
  %19 = fdiv reassoc nsz arcp contract afn double %18, 2.540000e+01
  %20 = fmul reassoc nsz arcp contract afn double %19, 7.200000e+01
  %21 = fdiv reassoc nsz arcp contract afn double %20, 7.200000e+01
  %22 = load i32, ptr %8, align 4, !tbaa !35
  %23 = sitofp i32 %22 to double
  %24 = fmul reassoc nsz arcp contract afn double %21, %23
  %25 = fptrunc reassoc nsz arcp contract afn double %24 to float
  %26 = load ptr, ptr %5, align 8, !tbaa !33
  %27 = getelementptr inbounds nuw %struct.dt_images_box, ptr %26, i32 0, i32 4
  store float %25, ptr %27, align 8, !tbaa !41
  %28 = load float, ptr %7, align 4, !tbaa !45
  %29 = fpext reassoc nsz arcp contract afn float %28 to double
  %30 = fdiv reassoc nsz arcp contract afn double %29, 2.540000e+01
  %31 = fmul reassoc nsz arcp contract afn double %30, 7.200000e+01
  %32 = fdiv reassoc nsz arcp contract afn double %31, 7.200000e+01
  %33 = load i32, ptr %8, align 4, !tbaa !35
  %34 = sitofp i32 %33 to double
  %35 = fmul reassoc nsz arcp contract afn double %32, %34
  %36 = fptrunc reassoc nsz arcp contract afn double %35 to float
  %37 = load ptr, ptr %5, align 8, !tbaa !33
  %38 = getelementptr inbounds nuw %struct.dt_images_box, ptr %37, i32 0, i32 5
  store float %36, ptr %38, align 4, !tbaa !40
  call void @llvm.lifetime.start.p0(i64 4, ptr %9) #5
  store i32 0, ptr %9, align 4, !tbaa !35
  br label %39

39:                                               ; preds = %74, %4
  %40 = load i32, ptr %9, align 4, !tbaa !35
  %41 = load ptr, ptr %5, align 8, !tbaa !33
  %42 = getelementptr inbounds nuw %struct.dt_images_box, ptr %41, i32 0, i32 2
  %43 = load i32, ptr %42, align 8, !tbaa !36
  %44 = icmp slt i32 %40, %43
  br i1 %44, label %46, label %45

45:                                               ; preds = %39
  call void @llvm.lifetime.end.p0(i64 4, ptr %9) #5
  br label %77

46:                                               ; preds = %39
  call void @llvm.lifetime.start.p0(i64 8, ptr %10) #5
  %47 = load ptr, ptr %5, align 8, !tbaa !33
  %48 = getelementptr inbounds nuw %struct.dt_images_box, ptr %47, i32 0, i32 3
  %49 = load i32, ptr %9, align 4, !tbaa !35
  %50 = sext i32 %49 to i64
  %51 = getelementptr inbounds [20 x %struct._image_box], ptr %48, i64 0, i64 %50
  store ptr %51, ptr %10, align 8, !tbaa !17
  %52 = load ptr, ptr %10, align 8, !tbaa !17
  %53 = getelementptr inbounds nuw %struct._image_box, ptr %52, i32 0, i32 10
  %54 = getelementptr inbounds nuw %struct._image_pos, ptr %53, i32 0, i32 2
  %55 = load float, ptr %54, align 8, !tbaa !99
  %56 = load ptr, ptr %5, align 8, !tbaa !33
  %57 = getelementptr inbounds nuw %struct.dt_images_box, ptr %56, i32 0, i32 4
  %58 = load float, ptr %57, align 8, !tbaa !41
  %59 = fmul reassoc nsz arcp contract afn float %55, %58
  %60 = fptosi float %59 to i32
  %61 = load ptr, ptr %10, align 8, !tbaa !17
  %62 = getelementptr inbounds nuw %struct._image_box, ptr %61, i32 0, i32 1
  store i32 %60, ptr %62, align 4, !tbaa !24
  %63 = load ptr, ptr %10, align 8, !tbaa !17
  %64 = getelementptr inbounds nuw %struct._image_box, ptr %63, i32 0, i32 10
  %65 = getelementptr inbounds nuw %struct._image_pos, ptr %64, i32 0, i32 3
  %66 = load float, ptr %65, align 4, !tbaa !100
  %67 = load ptr, ptr %5, align 8, !tbaa !33
  %68 = getelementptr inbounds nuw %struct.dt_images_box, ptr %67, i32 0, i32 5
  %69 = load float, ptr %68, align 4, !tbaa !40
  %70 = fmul reassoc nsz arcp contract afn float %66, %69
  %71 = fptosi float %70 to i32
  %72 = load ptr, ptr %10, align 8, !tbaa !17
  %73 = getelementptr inbounds nuw %struct._image_box, ptr %72, i32 0, i32 2
  store i32 %71, ptr %73, align 8, !tbaa !23
  call void @llvm.lifetime.end.p0(i64 8, ptr %10) #5
  br label %74

74:                                               ; preds = %46
  %75 = load i32, ptr %9, align 4, !tbaa !35
  %76 = add nsw i32 %75, 1
  store i32 %76, ptr %9, align 4, !tbaa !35
  br label %39

77:                                               ; preds = %45
  ret void
}