; Function Attrs: nofree norecurse nosync nounwind memory(argmem: readwrite) uwtable
define void @dt_printing_setup_page(ptr noundef captures(none) initializes((1936, 1952)) %0, float noundef %1, float noundef %2, i32 noundef %3) local_unnamed_addr #8 {
  %5 = getelementptr inbounds nuw i8, ptr %0, i64 1944
  store float %1, ptr %5, align 8, !tbaa !79
  %6 = getelementptr inbounds nuw i8, ptr %0, i64 1948
  store float %2, ptr %6, align 4, !tbaa !80
  %7 = fpext reassoc nsz arcp contract afn float %1 to double
  %8 = sitofp i32 %3 to double
  %9 = fmul reassoc nsz arcp contract afn double %8, 0x3FA42850A1428509
  %10 = fmul reassoc nsz arcp contract afn double %9, %7
  %11 = fptrunc reassoc nsz arcp contract afn double %10 to float
  %12 = getelementptr inbounds nuw i8, ptr %0, i64 1936
  store float %11, ptr %12, align 8, !tbaa !81
  %13 = fpext reassoc nsz arcp contract afn float %2 to double
  %14 = fmul reassoc nsz arcp contract afn double %9, %13
  %15 = fptrunc reassoc nsz arcp contract afn double %14 to float
  %16 = getelementptr inbounds nuw i8, ptr %0, i64 1940
  store float %15, ptr %16, align 4, !tbaa !82
  %17 = getelementptr inbounds nuw i8, ptr %0, i64 8
  %18 = load i32, ptr %17, align 8, !tbaa !15
  %19 = icmp sgt i32 %18, 0
  br i1 %19, label %.lr.ph, label %._crit_edge

.lr.ph:                                           ; preds = %4
  %20 = getelementptr inbounds nuw i8, ptr %0, i64 16
  %wide.trip.count = zext nneg i32 %18 to i64
  br label %21

._crit_edge:                                      ; preds = %21, %4
  ret void

21:                                               ; preds = %.lr.ph, %21
  %indvars.iv = phi i64 [ 0, %.lr.ph ], [ %indvars.iv.next, %21 ]
  %22 = getelementptr inbounds nuw [20 x %struct._image_box], ptr %20, i64 0, i64 %indvars.iv
  %23 = getelementptr inbounds nuw i8, ptr %22, i64 48
  %24 = load float, ptr %23, align 8, !tbaa !77
  %25 = fmul reassoc nsz arcp contract afn float %24, %11
  %26 = fptosi float %25 to i32
  %27 = getelementptr inbounds nuw i8, ptr %22, i64 4
  store i32 %26, ptr %27, align 4, !tbaa !83
  %28 = getelementptr inbounds nuw i8, ptr %22, i64 52
  %29 = load float, ptr %28, align 4, !tbaa !78
  %30 = fmul reassoc nsz arcp contract afn float %29, %15
  %31 = fptosi float %30 to i32
  %32 = getelementptr inbounds nuw i8, ptr %22, i64 8
  store i32 %31, ptr %32, align 8, !tbaa !84
  %indvars.iv.next = add nuw nsw i64 %indvars.iv, 1
  %exitcond.not = icmp eq i64 %indvars.iv.next, %wide.trip.count
  br i1 %exitcond.not, label %._crit_edge, label %21
}